; Function Attrs: mustprogress uwtable
define noundef nonnull align 8 dereferenceable(64) ptr @_ZNK6icu_7510UnicodeSet9toPatternERNS_13UnicodeStringEa(ptr nocapture noundef nonnull readonly align 8 dereferenceable(200) %this, ptr noundef nonnull align 8 dereferenceable(64) %result, i8 noundef signext %escapeUnprintable) unnamed_addr #1 align 2 {
entry:
  %fUnion.i.i = getelementptr inbounds i8, ptr %result, i64 8
  %0 = load i16, ptr %fUnion.i.i, align 8
  %conv2.i5.i = and i16 %0, 1
  %tobool.i.not = icmp eq i16 %conv2.i5.i, 0
  br i1 %tobool.i.not, label %if.else.i, label %if.then.i

if.then.i:                                        ; preds = %entry
  tail call void @_ZN6icu_7513UnicodeString7unBogusEv(ptr noundef nonnull align 8 dereferenceable(64) %result)
  br label %_ZN6icu_7513UnicodeString8truncateEi.exit

if.else.i:                                        ; preds = %entry
  %cmp.i.i.i = icmp slt i16 %0, 0
  %1 = ashr i16 %0, 5
  %shr.i.i.i = sext i16 %1 to i32
  %fLength.i.i = getelementptr inbounds i8, ptr %result, i64 12
  %2 = load i32, ptr %fLength.i.i, align 4
  %cond.i.i = select i1 %cmp.i.i.i, i32 %2, i32 %shr.i.i.i
  %cmp3.i.not = icmp eq i32 %cond.i.i, 0
  br i1 %cmp3.i.not, label %_ZN6icu_7513UnicodeString8truncateEi.exit, label %if.then4.i

if.then4.i:                                       ; preds = %if.else.i
  %3 = and i16 %0, 30
  store i16 %3, ptr %fUnion.i.i, align 8
  br label %_ZN6icu_7513UnicodeString8truncateEi.exit

_ZN6icu_7513UnicodeString8truncateEi.exit:        ; preds = %if.then.i, %if.else.i, %if.then4.i
  %call2 = tail call noundef nonnull align 8 dereferenceable(64) ptr @_ZNK6icu_7510UnicodeSet10_toPatternERNS_13UnicodeStringEa(ptr noundef nonnull align 8 dereferenceable(200) %this, ptr noundef nonnull align 8 dereferenceable(64) %result, i8 noundef signext %escapeUnprintable)
  ret ptr %call2
}